; Function Attrs: nounwind sspstrong uwtable
define internal void @virtio_scsi_hotplug(ptr noundef %hotplug_dev, ptr noundef %dev, ptr noundef %errp) #0 {
entry:
  %info = alloca %struct.VirtIOSCSIEventInfo, align 4
  %call.i = tail call ptr @object_dynamic_cast_assert(ptr noundef %hotplug_dev, ptr noundef nonnull @.str.3, ptr noundef nonnull @.str.4, i32 noundef 85, ptr noundef nonnull @__func__.VIRTIO_DEVICE) #13
  %call.i15 = tail call ptr @object_dynamic_cast_assert(ptr noundef %call.i, ptr noundef nonnull @.str.9, ptr noundef nonnull @.str.6, i32 noundef 31, ptr noundef nonnull @__func__.VIRTIO_SCSI) #13
  %call.i16 = tail call ptr @object_dynamic_cast_assert(ptr noundef %dev, ptr noundef nonnull @.str.34, ptr noundef nonnull @.str.35, i32 noundef 55, ptr noundef nonnull @__func__.SCSI_DEVICE) #13
  %ctx = getelementptr inbounds nuw i8, ptr %call.i15, i64 840
  %0 = load ptr, ptr %ctx, align 8
  %tobool.not = icmp eq ptr %0, null
  br i1 %tobool.not, label %if.end15, label %land.lhs.true

land.lhs.true:                                    ; preds = %entry
  %dataplane_fenced = getelementptr inbounds nuw i8, ptr %call.i15, i64 851
  %1 = load i8, ptr %dataplane_fenced, align 1
  %tobool3 = trunc i8 %1 to i1
  br i1 %tobool3, label %if.end15, label %if.then

if.then:                                          ; preds = %land.lhs.true
  %conf = getelementptr inbounds nuw i8, ptr %call.i16, i64 184
  %2 = load ptr, ptr %conf, align 8
  %call4 = tail call zeroext i1 @blk_op_is_blocked(ptr noundef %2, i32 noundef 5, ptr noundef %errp) #13
  br i1 %call4, label %if.end20, label %if.end

if.end:                                           ; preds = %if.then
  %3 = load ptr, ptr %conf, align 8
  %call8 = tail call ptr @blk_get_aio_context(ptr noundef %3) #13
  tail call void @aio_context_acquire(ptr noundef %call8) #13
  %4 = load ptr, ptr %conf, align 8
  %5 = load ptr, ptr %ctx, align 8
  %call12 = tail call i32 @blk_set_aio_context(ptr noundef %4, ptr noundef %5, ptr noundef %errp) #13
  tail call void @aio_context_release(ptr noundef %call8) #13
  %cmp = icmp slt i32 %call12, 0
  br i1 %cmp, label %if.end20, label %if.end15

if.end15:                                         ; preds = %if.end, %land.lhs.true, %entry
  %6 = getelementptr i8, ptr %call.i, i64 184
  %call.val = load i64, ptr %6, align 8
  %and.i.i = and i64 %call.val, 2
  %tobool.i.i.not = icmp eq i64 %and.i.i, 0
  br i1 %tobool.i.i.not, label %if.end20, label %if.then17

if.then17:                                        ; preds = %if.end15
  store i32 1, ptr %info, align 4
  %reason = getelementptr inbounds nuw i8, ptr %info, i64 4
  store i32 1, ptr %reason, align 4
  %7 = getelementptr inbounds nuw i8, ptr %info, i64 8
  %id18 = getelementptr inbounds nuw i8, ptr %call.i16, i64 176
  %8 = load i32, ptr %id18, align 8
  store i32 %8, ptr %7, align 4
  %lun = getelementptr inbounds nuw i8, ptr %info, i64 12
  %lun19 = getelementptr inbounds nuw i8, ptr %call.i16, i64 556
  %9 = load i32, ptr %lun19, align 4
  store i32 %9, ptr %lun, align 4
  %call1.val = load ptr, ptr %ctx, align 8
  %tobool.not.i = icmp eq ptr %call1.val, null
  br i1 %tobool.not.i, label %virtio_scsi_acquire.exit, label %if.then.i

if.then.i:                                        ; preds = %if.then17
  tail call void @aio_context_acquire(ptr noundef nonnull %call1.val) #13
  br label %virtio_scsi_acquire.exit

virtio_scsi_acquire.exit:                         ; preds = %if.then17, %if.then.i
  call fastcc void @virtio_scsi_push_event(ptr noundef nonnull %call.i15, ptr noundef %info)
  %bus = getelementptr inbounds nuw i8, ptr %call.i15, i64 664
  %sense_code_REPORTED_LUNS_CHANGED.coerce.0.copyload = load i24, ptr @sense_code_REPORTED_LUNS_CHANGED, align 1
  tail call void @scsi_bus_set_ua(ptr noundef nonnull %bus, i24 %sense_code_REPORTED_LUNS_CHANGED.coerce.0.copyload) #13
  %call1.val14 = load ptr, ptr %ctx, align 8
  %tobool.not.i17 = icmp eq ptr %call1.val14, null
  br i1 %tobool.not.i17, label %if.end20, label %if.then.i18

if.then.i18:                                      ; preds = %virtio_scsi_acquire.exit
  tail call void @aio_context_release(ptr noundef nonnull %call1.val14) #13
  br label %if.end20

if.end20:                                         ; preds = %if.then.i18, %virtio_scsi_acquire.exit, %if.end, %if.then, %if.end15
  ret void
}